target datalayout = "e-m:e-p270:32:32-p271:32:32-p272:64:64-i64:64-i128:128-f80:128-n8:16:32:64-S128"
target triple = "x86_64-pc-linux-gnu"

%struct.XML_Memory_Handling_Suite = type { ptr, ptr, ptr }
%struct.XML_ParserStruct = type { ptr, ptr, ptr, %struct.XML_Memory_Handling_Suite, ptr, ptr, ptr, i64, ptr, i64, i8, i32, ptr, ptr, ptr, ptr, ptr, ptr, ptr, ptr, ptr, ptr, ptr, ptr, ptr, ptr, ptr, ptr, ptr, ptr, ptr, ptr, ptr, ptr, ptr, ptr, ptr, ptr, %struct.INIT_ENCODING, ptr, ptr, i8, i8, ptr, ptr, ptr, ptr, %struct.prolog_state, ptr, i32, ptr, ptr, ptr, ptr, ptr, i8, i32, ptr, ptr, ptr, ptr, ptr, ptr, ptr, ptr, ptr, i8, i8, ptr, ptr, ptr, ptr, ptr, ptr, i32, i32, i32, ptr, ptr, i64, i8, %struct.position, %struct.STRING_POOL, %struct.STRING_POOL, ptr, i32, i8, ptr, %struct.XML_ParsingStatus, i8, i8, i32, i64, %struct.accounting, %struct.entity_stats }
%struct.INIT_ENCODING = type { %struct.encoding, ptr }
%struct.encoding = type { [4 x ptr], [2 x ptr], ptr, ptr, ptr, ptr, ptr, ptr, ptr, ptr, ptr, ptr, i32, i8, i8 }
%struct.prolog_state = type { ptr, i32, i32, i32, i32, i32 }
%struct.position = type { i64, i64 }
%struct.STRING_POOL = type { ptr, ptr, ptr, ptr, ptr, ptr }
%struct.XML_ParsingStatus = type { i32, i8 }
%struct.accounting = type { i64, i64, i64, float, i64 }
%struct.entity_stats = type { i32, i32, i32, i64 }
%struct.DTD = type { %struct.HASH_TABLE, %struct.HASH_TABLE, %struct.HASH_TABLE, %struct.HASH_TABLE, %struct.STRING_POOL, %struct.STRING_POOL, i8, i8, i8, i8, %struct.HASH_TABLE, %struct.prefix, i8, ptr, i32, i32, i32, i32, ptr }
%struct.HASH_TABLE = type { ptr, i8, i64, i64, ptr }
%struct.prefix = type { ptr, ptr }

; Function Attrs: nounwind uwtable
define internal i32 @externalParEntInitProcessor(ptr noundef %0, ptr noundef %1, ptr noundef %2, ptr noundef %3) #0 {
  %5 = alloca i32, align 4
  %6 = alloca ptr, align 8
  %7 = alloca ptr, align 8
  %8 = alloca ptr, align 8
  %9 = alloca ptr, align 8
  %10 = alloca i32, align 4
  %11 = alloca i32, align 4
  store ptr %0, ptr %6, align 8, !tbaa !12
  store ptr %1, ptr %7, align 8, !tbaa !3
  store ptr %2, ptr %8, align 8, !tbaa !3
  store ptr %3, ptr %9, align 8, !tbaa !203
  call void @llvm.lifetime.start.p0(i64 4, ptr %10) #11
  %12 = load ptr, ptr %6, align 8, !tbaa !12
  %13 = call i32 @initializeEncoding(ptr noundef %12)
  store i32 %13, ptr %10, align 4, !tbaa !174
  %14 = load i32, ptr %10, align 4, !tbaa !174
  %15 = icmp ne i32 %14, 0
  br i1 %15, label %16, label %18

16:                                               ; preds = %4
  %17 = load i32, ptr %10, align 4, !tbaa !174
  store i32 %17, ptr %5, align 4
  store i32 1, ptr %11, align 4
  br label %44

18:                                               ; preds = %4
  %19 = load ptr, ptr %6, align 8, !tbaa !12
  %20 = getelementptr inbounds nuw %struct.XML_ParserStruct, ptr %19, i32 0, i32 68
  %21 = load ptr, ptr %20, align 8, !tbaa !44
  %22 = getelementptr inbounds nuw %struct.DTD, ptr %21, i32 0, i32 9
  store i8 1, ptr %22, align 1, !tbaa !155
  %23 = load ptr, ptr %6, align 8, !tbaa !12
  %24 = getelementptr inbounds nuw %struct.XML_ParserStruct, ptr %23, i32 0, i32 47
  %25 = getelementptr inbounds nuw %struct.prolog_state, ptr %24, i32 0, i32 5
  %26 = load i32, ptr %25, align 8, !tbaa !175
  %27 = icmp ne i32 %26, 0
  br i1 %27, label %28, label %36

28:                                               ; preds = %18
  %29 = load ptr, ptr %6, align 8, !tbaa !12
  %30 = getelementptr inbounds nuw %struct.XML_ParserStruct, ptr %29, i32 0, i32 48
  store ptr @entityValueInitProcessor, ptr %30, align 8, !tbaa !92
  %31 = load ptr, ptr %6, align 8, !tbaa !12
  %32 = load ptr, ptr %7, align 8, !tbaa !3
  %33 = load ptr, ptr %8, align 8, !tbaa !3
  %34 = load ptr, ptr %9, align 8, !tbaa !203
  %35 = call i32 @entityValueInitProcessor(ptr noundef %31, ptr noundef %32, ptr noundef %33, ptr noundef %34)
  store i32 %35, ptr %5, align 4
  store i32 1, ptr %11, align 4
  br label %44

36:                                               ; preds = %18
  %37 = load ptr, ptr %6, align 8, !tbaa !12
  %38 = getelementptr inbounds nuw %struct.XML_ParserStruct, ptr %37, i32 0, i32 48
  store ptr @externalParEntProcessor, ptr %38, align 8, !tbaa !92
  %39 = load ptr, ptr %6, align 8, !tbaa !12
  %40 = load ptr, ptr %7, align 8, !tbaa !3
  %41 = load ptr, ptr %8, align 8, !tbaa !3
  %42 = load ptr, ptr %9, align 8, !tbaa !203
  %43 = call i32 @externalParEntProcessor(ptr noundef %39, ptr noundef %40, ptr noundef %41, ptr noundef %42)
  store i32 %43, ptr %5, align 4
  store i32 1, ptr %11, align 4
  br label %44

44:                                               ; preds = %36, %28, %16
  call void @llvm.lifetime.end.p0(i64 4, ptr %10) #11
  %45 = load i32, ptr %5, align 4
  ret i32 %45
}