; Function Attrs: nounwind uwtable
define internal i32 @externalParEntInitProcessor(ptr noundef %0, ptr noundef %1, ptr noundef %2, ptr noundef writeonly captures(none) %3) #0 {
  %5 = tail call fastcc i32 @initializeEncoding(ptr noundef %0)
  %.not = icmp eq i32 %5, 0
  br i1 %.not, label %6, label %17

6:                                                ; preds = %4
  %7 = getelementptr inbounds nuw i8, ptr %0, i64 688
  %8 = load ptr, ptr %7, align 8, !tbaa !53
  %9 = getelementptr inbounds nuw i8, ptr %8, i64 259
  store i8 1, ptr %9, align 1, !tbaa !46
  %10 = getelementptr inbounds nuw i8, ptr %0, i64 536
  %11 = load i32, ptr %10, align 8, !tbaa !144
  %.not16 = icmp eq i32 %11, 0
  %12 = getelementptr inbounds nuw i8, ptr %0, i64 544
  br i1 %.not16, label %15, label %13

13:                                               ; preds = %6
  store ptr @entityValueInitProcessor, ptr %12, align 8, !tbaa !100
  %14 = tail call i32 @entityValueInitProcessor(ptr noundef nonnull %0, ptr noundef %1, ptr noundef %2, ptr noundef %3)
  br label %17

15:                                               ; preds = %6
  store ptr @externalParEntProcessor, ptr %12, align 8, !tbaa !100
  %16 = tail call i32 @externalParEntProcessor(ptr noundef nonnull %0, ptr noundef %1, ptr noundef %2, ptr noundef %3)
  br label %17

17:                                               ; preds = %4, %15, %13
  %.0 = phi i32 [ %14, %13 ], [ %16, %15 ], [ %5, %4 ]
  ret i32 %.0
}